target datalayout = "e-m:e-p270:32:32-p271:32:32-p272:64:64-i64:64-i128:128-f80:128-n8:16:32:64-S128"
target triple = "x86_64-unknown-linux-gnu"

%struct.PCIDevice = type { %struct.DeviceState, i8, i8, ptr, ptr, ptr, ptr, ptr, i32, %struct.PCIReqIDCache, [64 x i8], [7 x %struct.PCIIORegion], %struct.AddressSpace, %struct.MemoryRegion, %struct.MemoryRegion, ptr, ptr, [3 x ptr], i8, i8, i32, i8, i32, ptr, ptr, ptr, ptr, ptr, ptr, %struct.MemoryRegion, %struct.MemoryRegion, %struct.MemoryRegion, ptr, i8, i32, i8, %struct.PCIExpressDevice, ptr, ptr, i32, i8, %struct.MemoryRegion, i32, ptr, ptr, ptr, ptr, ptr, i32 }
%struct.DeviceState = type { %struct.Object, ptr, ptr, i8, i8, i64, ptr, i32, i8, ptr, %struct.NamedGPIOListHead, %struct.NamedClockListHead, %struct.BusStateHead, i32, i32, i32, %struct.ResettableState, ptr, %struct.MemReentrancyGuard }
%struct.Object = type { ptr, ptr, ptr, i32, ptr }
%struct.NamedGPIOListHead = type { ptr }
%struct.NamedClockListHead = type { ptr }
%struct.BusStateHead = type { ptr }
%struct.ResettableState = type { i32, i8, i8 }
%struct.MemReentrancyGuard = type { i8 }
%struct.PCIReqIDCache = type { ptr, i32 }
%struct.PCIIORegion = type { i64, i64, i8, ptr, ptr }
%struct.AddressSpace = type { %struct.rcu_head, ptr, ptr, ptr, i32, i32, ptr, %union.anon, %union.anon.0 }
%struct.rcu_head = type { ptr, ptr }
%union.anon = type { %struct.QTailQLink }
%struct.QTailQLink = type { ptr, ptr }
%union.anon.0 = type { %struct.QTailQLink }
%struct.PCIExpressDevice = type { i8, i8, i8, i16, %struct.PCIEAERLog, i16, i16, i16, %struct.PCIESriovPF, %struct.PCIESriovVF }
%struct.PCIEAERLog = type { i16, i16, ptr }
%struct.PCIESriovPF = type { i16, [7 x i8], ptr, ptr }
%struct.PCIESriovVF = type { ptr, i16 }
%struct.MemoryRegion = type { %struct.Object, i8, i8, i8, i8, i8, i8, i8, i8, i8, i8, ptr, ptr, ptr, ptr, ptr, ptr, i32, i128, i64, ptr, i64, i8, i8, i8, i8, i8, ptr, i64, i32, %union.anon.1, %union.anon.2, %union.anon.3, ptr, i32, ptr, ptr, i8 }
%union.anon.1 = type { %struct.QTailQLink }
%union.anon.2 = type { %struct.QTailQLink }
%union.anon.3 = type { %struct.QTailQLink }
%struct.IVShmemState = type { %struct.PCIDevice, i32, ptr, %struct.CharBackend, i32, i32, i32, %struct.MemoryRegion, ptr, %struct.MemoryRegion, ptr, i32, i32, ptr, i64, i32, i32, ptr }
%struct.CharBackend = type { ptr, ptr, ptr, ptr, ptr, ptr, i32, i32 }
%struct.Peer = type { i32, ptr }
%struct.EventNotifier = type { i32, i32, i8 }
%struct.MSIVector = type { ptr, i32, i8 }

@.str = private unnamed_addr constant [15 x i8] c"ivshmem-common\00", align 1
@.str.7 = private unnamed_addr constant [26 x i8] c"../qemu/hw/misc/ivshmem.c\00", align 1
@__func__.IVSHMEM_COMMON = private unnamed_addr constant [15 x i8] c"IVSHMEM_COMMON\00", align 1

; Function Attrs: nounwind sspstrong uwtable
define internal void @ivshmem_IntrStatus_write(ptr noundef %s, i32 noundef %val) #0 {
entry:
  %s.addr = alloca ptr, align 8
  %val.addr = alloca i32, align 4
  store ptr %s, ptr %s.addr, align 8
  store i32 %val, ptr %val.addr, align 4
  br label %do.body

do.body:                                          ; preds = %entry
  br label %do.end

do.end:                                           ; preds = %do.body
  %0 = load i32, ptr %val.addr, align 4
  %1 = load ptr, ptr %s.addr, align 8
  %intrstatus = getelementptr inbounds %struct.IVShmemState, ptr %1, i32 0, i32 5
  store i32 %0, ptr %intrstatus, align 4
  ret void
}

; Function Attrs: nounwind sspstrong uwtable
define internal i32 @ivshmem_has_feature(ptr noundef %ivs, i32 noundef %feature) #0 {
entry:
  %ivs.addr = alloca ptr, align 8
  %feature.addr = alloca i32, align 4
  store ptr %ivs, ptr %ivs.addr, align 8
  store i32 %feature, ptr %feature.addr, align 4
  %0 = load ptr, ptr %ivs.addr, align 8
  %features = getelementptr inbounds %struct.IVShmemState, ptr %0, i32 0, i32 1
  %1 = load i32, ptr %features, align 16
  %2 = load i32, ptr %feature.addr, align 4
  %shl = shl i32 1, %2
  %and = and i32 %1, %shl
  ret i32 %and
}

; Function Attrs: nounwind sspstrong uwtable
define internal ptr @IVSHMEM_COMMON(ptr noundef %obj) #0 {
entry:
  %obj.addr = alloca ptr, align 8
  store ptr %obj, ptr %obj.addr, align 8
  %0 = load ptr, ptr %obj.addr, align 8
  %call = call ptr @object_dynamic_cast_assert(ptr noundef %0, ptr noundef @.str, ptr noundef @.str.7, i32 noundef 63, ptr noundef @__func__.IVSHMEM_COMMON)
  ret ptr %call
}

; Function Attrs: nounwind sspstrong uwtable
define internal void @ivshmem_vector_notify(ptr noundef %opaque) #0 {
entry:
  %opaque.addr = alloca ptr, align 8
  %entry1 = alloca ptr, align 8
  %pdev = alloca ptr, align 8
  %s = alloca ptr, align 8
  %vector = alloca i32, align 4
  %n = alloca ptr, align 8
  store ptr %opaque, ptr %opaque.addr, align 8
  %0 = load ptr, ptr %opaque.addr, align 8
  store ptr %0, ptr %entry1, align 8
  %1 = load ptr, ptr %entry1, align 8
  %pdev2 = getelementptr inbounds %struct.MSIVector, ptr %1, i32 0, i32 0
  %2 = load ptr, ptr %pdev2, align 8
  store ptr %2, ptr %pdev, align 8
  %3 = load ptr, ptr %pdev, align 8
  %call = call ptr @IVSHMEM_COMMON(ptr noundef %3)
  store ptr %call, ptr %s, align 8
  %4 = load ptr, ptr %entry1, align 8
  %5 = load ptr, ptr %s, align 8
  %msi_vectors = getelementptr inbounds %struct.IVShmemState, ptr %5, i32 0, i32 13
  %6 = load ptr, ptr %msi_vectors, align 16
  %sub.ptr.lhs.cast = ptrtoint ptr %4 to i64
  %sub.ptr.rhs.cast = ptrtoint ptr %6 to i64
  %sub.ptr.sub = sub i64 %sub.ptr.lhs.cast, %sub.ptr.rhs.cast
  %sub.ptr.div = sdiv exact i64 %sub.ptr.sub, 16
  %conv = trunc i64 %sub.ptr.div to i32
  store i32 %conv, ptr %vector, align 4
  %7 = load ptr, ptr %s, align 8
  %peers = getelementptr inbounds %struct.IVShmemState, ptr %7, i32 0, i32 10
  %8 = load ptr, ptr %peers, align 16
  %9 = load ptr, ptr %s, align 8
  %vm_id = getelementptr inbounds %struct.IVShmemState, ptr %9, i32 0, i32 6
  %10 = load i32, ptr %vm_id, align 16
  %idxprom = sext i32 %10 to i64
  %arrayidx = getelementptr %struct.Peer, ptr %8, i64 %idxprom
  %eventfds = getelementptr inbounds %struct.Peer, ptr %arrayidx, i32 0, i32 1
  %11 = load ptr, ptr %eventfds, align 8
  %12 = load i32, ptr %vector, align 4
  %idxprom3 = sext i32 %12 to i64
  %arrayidx4 = getelementptr %struct.EventNotifier, ptr %11, i64 %idxprom3
  store ptr %arrayidx4, ptr %n, align 8
  %13 = load ptr, ptr %n, align 8
  %call5 = call i32 @event_notifier_test_and_clear(ptr noundef %13)
  %tobool = icmp ne i32 %call5, 0
  br i1 %tobool, label %if.end, label %if.then

if.then:                                          ; preds = %entry
  br label %if.end13

if.end:                                           ; preds = %entry
  br label %do.body

do.body:                                          ; preds = %if.end
  br label %do.end

do.end:                                           ; preds = %do.body
  %14 = load ptr, ptr %s, align 8
  %call6 = call i32 @ivshmem_has_feature(ptr noundef %14, i32 noundef 1)
  %tobool7 = icmp ne i32 %call6, 0
  br i1 %tobool7, label %if.then8, label %if.else

if.then8:                                         ; preds = %do.end
  %15 = load ptr, ptr %pdev, align 8
  %call9 = call i32 @msix_enabled(ptr noundef %15)
  %tobool10 = icmp ne i32 %call9, 0
  br i1 %tobool10, label %if.then11, label %if.end12

if.then11:                                        ; preds = %if.then8
  %16 = load ptr, ptr %pdev, align 8
  %17 = load i32, ptr %vector, align 4
  call void @msix_notify(ptr noundef %16, i32 noundef %17)
  br label %if.end12

if.end12:                                         ; preds = %if.then11, %if.then8
  br label %if.end13

if.else:                                          ; preds = %do.end
  %18 = load ptr, ptr %s, align 8
  call void @ivshmem_IntrStatus_write(ptr noundef %18, i32 noundef 1)
  br label %if.end13

if.end13:                                         ; preds = %if.else, %if.end12, %if.then
  ret void
}