; Function Attrs: nounwind sspstrong uwtable
define internal void @ivshmem_vector_notify(ptr noundef %opaque) #0 {
entry:
  %0 = load ptr, ptr %opaque, align 8
  %call.i = tail call ptr @object_dynamic_cast_assert(ptr noundef %0, ptr noundef nonnull @.str, ptr noundef nonnull @.str.7, i32 noundef 63, ptr noundef nonnull @__func__.IVSHMEM_COMMON) #11
  %msi_vectors = getelementptr inbounds nuw i8, ptr %call.i, i64 3280
  %1 = load ptr, ptr %msi_vectors, align 16
  %sub.ptr.lhs.cast = ptrtoint ptr %opaque to i64
  %sub.ptr.rhs.cast = ptrtoint ptr %1 to i64
  %sub.ptr.sub = sub i64 %sub.ptr.lhs.cast, %sub.ptr.rhs.cast
  %sub.ptr.div = lshr exact i64 %sub.ptr.sub, 4
  %conv = trunc i64 %sub.ptr.div to i32
  %peers = getelementptr inbounds nuw i8, ptr %call.i, i64 3264
  %2 = load ptr, ptr %peers, align 16
  %vm_id = getelementptr inbounds nuw i8, ptr %call.i, i64 2688
  %3 = load i32, ptr %vm_id, align 16
  %idxprom = sext i32 %3 to i64
  %eventfds = getelementptr %struct.Peer, ptr %2, i64 %idxprom, i32 1
  %4 = load ptr, ptr %eventfds, align 8
  %sext = shl i64 %sub.ptr.sub, 28
  %idxprom3 = ashr i64 %sext, 32
  %arrayidx4 = getelementptr %struct.EventNotifier, ptr %4, i64 %idxprom3
  %call5 = tail call i32 @event_notifier_test_and_clear(ptr noundef %arrayidx4) #11
  %tobool.not = icmp eq i32 %call5, 0
  br i1 %tobool.not, label %if.end13, label %do.end

do.end:                                           ; preds = %entry
  %5 = getelementptr i8, ptr %call.i, i64 2608
  %call.val = load i32, ptr %5, align 16
  %and.i = and i32 %call.val, 2
  %tobool7.not = icmp eq i32 %and.i, 0
  br i1 %tobool7.not, label %if.else, label %if.then8

if.then8:                                         ; preds = %do.end
  %call9 = tail call i32 @msix_enabled(ptr noundef %0) #11
  %tobool10.not = icmp eq i32 %call9, 0
  br i1 %tobool10.not, label %if.end13, label %if.then11

if.then11:                                        ; preds = %if.then8
  tail call void @msix_notify(ptr noundef %0, i32 noundef %conv) #11
  br label %if.end13

if.else:                                          ; preds = %do.end
  %intrstatus.i = getelementptr inbounds nuw i8, ptr %call.i, i64 2684
  store i32 1, ptr %intrstatus.i, align 4
  br label %if.end13

if.end13:                                         ; preds = %if.then8, %if.then11, %entry, %if.else
  ret void
}